---
triple:          'x86_64-apple-darwin'
binary-path:     '/Users/brandonlingo/Documents/Lexer-Analyzer/output/main'
relocations:
  - { offsetInCU: 0x495E, offset: 0x495E, size: 0x8, addend: 0x0, symName: __ZNSt3__124__put_character_sequenceB7v160006IcNS_11char_traitsIcEEEERNS_13basic_ostreamIT_T0_EES7_PKS4_m, symObjAddr: 0x47C0, symBinAddr: 0x100005F50, symSize: 0x1F0 }
  - { offsetInCU: 0x57BB, offset: 0x57BB, size: 0x8, addend: 0x0, symName: __ZNSt3__16copy_nB7v160006IPKcmPcEENS_9enable_ifIXsr33__is_cpp17_random_access_iteratorIT_EE5valueET1_E4typeES5_T0_S6_, symObjAddr: 0x5820, symBinAddr: 0x100006FB0, symSize: 0x40 }
  - { offsetInCU: 0x6741, offset: 0x6741, size: 0x8, addend: 0x0, symName: __ZNSt3__1lsB7v160006INS_11char_traitsIcEEEERNS_13basic_ostreamIcT_EES6_PKc, symObjAddr: 0x870, symBinAddr: 0x100002000, symSize: 0x40 }
  - { offsetInCU: 0x6787, offset: 0x6787, size: 0x8, addend: 0x0, symName: __ZNSt3__14endlB7v160006IcNS_11char_traitsIcEEEERNS_13basic_ostreamIT_T0_EES7_, symObjAddr: 0x8D0, symBinAddr: 0x100002060, symSize: 0x50 }
  - { offsetInCU: 0x78E7, offset: 0x78E7, size: 0x8, addend: 0x0, symName: __ZNSt3__1lsB7v160006INS_11char_traitsIcEEEERNS_13basic_ostreamIcT_EES6_c, symObjAddr: 0xC90, symBinAddr: 0x100002420, symSize: 0x30 }
  - { offsetInCU: 0x792D, offset: 0x792D, size: 0x8, addend: 0x0, symName: __ZNSt3__1lsB7v160006IcNS_11char_traitsIcEENS_9allocatorIcEEEERNS_13basic_ostreamIT_T0_EES9_RKNS_12basic_stringIS6_S7_T1_EE, symObjAddr: 0xCF0, symBinAddr: 0x100002480, symSize: 0x50 }
  - { offsetInCU: 0x7985, offset: 0x7985, size: 0x8, addend: 0x0, symName: __ZNSt3__1neB7v160006IPP5TokenEEbRKNS_11__wrap_iterIT_EES8_, symObjAddr: 0x1230, symBinAddr: 0x1000029C0, symSize: 0x30 }
  - { offsetInCU: 0x79C8, offset: 0x79C8, size: 0x8, addend: 0x0, symName: __ZNSt3__1plB7v160006IcNS_11char_traitsIcEENS_9allocatorIcEEEENS_12basic_stringIT_T0_T1_EERKS9_PKS6_, symObjAddr: 0x1280, symBinAddr: 0x100002A10, symSize: 0x100 }
  - { offsetInCU: 0x7A80, offset: 0x7A80, size: 0x8, addend: 0x0, symName: __ZNSt3__119__debug_db_insert_cB7v160006INS_12basic_stringIcNS_11char_traitsIcEENS_9allocatorIcEEEEEEvPT_, symObjAddr: 0x1640, symBinAddr: 0x100002DD0, symSize: 0x10 }
  - { offsetInCU: 0x7AB1, offset: 0x7AB1, size: 0x8, addend: 0x0, symName: __ZNSt3__130__libcpp_is_constant_evaluatedB7v160006Ev, symObjAddr: 0x17C0, symBinAddr: 0x100002F50, symSize: 0x10 }
  - { offsetInCU: 0x7ACE, offset: 0x7ACE, size: 0x8, addend: 0x0, symName: __ZNSt3__117__libcpp_allocateB7v160006Emm, symObjAddr: 0x1AA0, symBinAddr: 0x100003230, symSize: 0x20 }
  - { offsetInCU: 0x7B0B, offset: 0x7B0B, size: 0x8, addend: 0x0, symName: __ZNSt3__121__libcpp_operator_newB7v160006IJmEEEPvDpT_, symObjAddr: 0x1AE0, symBinAddr: 0x100003270, symSize: 0x20 }
  - { offsetInCU: 0x7B44, offset: 0x7B44, size: 0x8, addend: 0x0, symName: __ZNSt3__119__debug_db_insert_cB7v160006INS_6vectorIP5TokenNS_9allocatorIS3_EEEEEEvPT_, symObjAddr: 0x22F0, symBinAddr: 0x100003A80, symSize: 0x10 }
  - { offsetInCU: 0x7BA8, offset: 0x7BA8, size: 0x8, addend: 0x0, symName: __ZNSt3__112__to_addressB7v160006IP5TokenEEPT_S4_, symObjAddr: 0x27F0, symBinAddr: 0x100003F80, symSize: 0x10 }
  - { offsetInCU: 0x7BDD, offset: 0x7BDD, size: 0x8, addend: 0x0, symName: __ZNSt3__13maxB7v160006ImEERKT_S3_S3_, symObjAddr: 0x2BE0, symBinAddr: 0x100004370, symSize: 0x30 }
  - { offsetInCU: 0x7C20, offset: 0x7C20, size: 0x8, addend: 0x0, symName: __ZNSt3__13minB7v160006ImEERKT_S3_S3_, symObjAddr: 0x2C10, symBinAddr: 0x1000043A0, symSize: 0x30 }
  - { offsetInCU: 0x7E64, offset: 0x7E64, size: 0x8, addend: 0x0, symName: __ZNSt3__13minB7v160006ImNS_6__lessImmEEEERKT_S5_S5_T0_, symObjAddr: 0x2C90, symBinAddr: 0x100004420, symSize: 0x50 }
  - { offsetInCU: 0x7EF9, offset: 0x7EF9, size: 0x8, addend: 0x0, symName: __ZNSt3__120__throw_length_errorB7v160006EPKc, symObjAddr: 0x2D70, symBinAddr: 0x100004500, symSize: 0x70 }
  - { offsetInCU: 0x7F21, offset: 0x7F21, size: 0x8, addend: 0x0, symName: __ZNSt3__13maxB7v160006ImNS_6__lessImmEEEERKT_S5_S5_T0_, symObjAddr: 0x2EA0, symBinAddr: 0x100004630, symSize: 0x50 }
  - { offsetInCU: 0x7F7B, offset: 0x7F7B, size: 0x8, addend: 0x0, symName: __ZNSt3__119__allocate_at_leastB7v160006INS_9allocatorIP5TokenEEEENS_19__allocation_resultINS_16allocator_traitsIT_E7pointerEEERS7_m, symObjAddr: 0x2FF0, symBinAddr: 0x100004780, symSize: 0x40 }
  - { offsetInCU: 0x7FBE, offset: 0x7FBE, size: 0x8, addend: 0x0, symName: __ZNSt3__142__uninitialized_allocator_move_if_noexceptB7v160006INS_9allocatorIP5TokenEENS_16reverse_iteratorIPS3_EES7_S3_vEET1_RT_T0_SB_S8_, symObjAddr: 0x3260, symBinAddr: 0x1000049F0, symSize: 0x120 }
  - { offsetInCU: 0x803A, offset: 0x803A, size: 0x8, addend: 0x0, symName: __ZNSt3__14swapB7v160006IPP5TokenEEvRT_S5_, symObjAddr: 0x33D0, symBinAddr: 0x100004B60, symSize: 0x40 }
  - { offsetInCU: 0x808B, offset: 0x808B, size: 0x8, addend: 0x0, symName: __ZNSt3__125__debug_db_invalidate_allB7v160006INS_6vectorIP5TokenNS_9allocatorIS3_EEEEEEvPT_, symObjAddr: 0x34C0, symBinAddr: 0x100004C50, symSize: 0x10 }
  - { offsetInCU: 0x80BC, offset: 0x80BC, size: 0x8, addend: 0x0, symName: __ZNSt3__1neB7v160006IPP5TokenS3_EEbRKNS_16reverse_iteratorIT_EERKNS4_IT0_EE, symObjAddr: 0x3510, symBinAddr: 0x100004CA0, symSize: 0x40 }
  - { offsetInCU: 0x812D, offset: 0x812D, size: 0x8, addend: 0x0, symName: __ZNSt3__114__construct_atB7v160006IP5TokenJS2_EPS2_EEPT_S5_DpOT0_, symObjAddr: 0x3550, symBinAddr: 0x100004CE0, symSize: 0x30 }
  - { offsetInCU: 0x819D, offset: 0x819D, size: 0x8, addend: 0x0, symName: __ZNSt3__112__to_addressB7v160006INS_16reverse_iteratorIPP5TokenEEvEENS_5decayIDTclsr19__to_address_helperIT_EE6__callclsr3stdE7declvalIRKS7_EEEEE4typeES9_, symObjAddr: 0x3580, symBinAddr: 0x100004D10, symSize: 0x20 }
  - { offsetInCU: 0x81D3, offset: 0x81D3, size: 0x8, addend: 0x0, symName: __ZNSt3__14moveB7v160006INS_16reverse_iteratorIPP5TokenEES5_EET0_T_S7_S6_, symObjAddr: 0x35F0, symBinAddr: 0x100004D80, symSize: 0x80 }
  - { offsetInCU: 0x8256, offset: 0x8256, size: 0x8, addend: 0x0, symName: __ZNSt3__16__moveB7v160006INS_17_ClassicAlgPolicyENS_16reverse_iteratorIPP5TokenEES6_S6_EENS_4pairIT0_T2_EES8_T1_S9_, symObjAddr: 0x36E0, symBinAddr: 0x100004E70, symSize: 0x90 }
  - { offsetInCU: 0x82C2, offset: 0x82C2, size: 0x8, addend: 0x0, symName: __ZNSt3__123__dispatch_copy_or_moveB7v160006INS_17_ClassicAlgPolicyENS_11__move_loopIS1_EENS_14__move_trivialENS_16reverse_iteratorIPP5TokenEES9_S9_EENS_4pairIT2_T4_EESB_T3_SC_, symObjAddr: 0x3770, symBinAddr: 0x100004F00, symSize: 0xB0 }
  - { offsetInCU: 0x8340, offset: 0x8340, size: 0x8, addend: 0x0, symName: __ZNSt3__121__unwrap_and_dispatchB7v160006INS_10__overloadINS_11__move_loopINS_17_ClassicAlgPolicyEEENS_14__move_trivialEEENS_16reverse_iteratorIPP5TokenEESB_SB_Li0EEENS_4pairIT0_T2_EESD_T1_SE_, symObjAddr: 0x3820, symBinAddr: 0x100004FB0, symSize: 0x210 }
  - { offsetInCU: 0x83CF, offset: 0x83CF, size: 0x8, addend: 0x0, symName: __ZNSt3__114__unwrap_rangeB7v160006INS_16reverse_iteratorIPP5TokenEES5_EENS_4pairIT0_S7_EET_S9_, symObjAddr: 0x3A30, symBinAddr: 0x1000051C0, symSize: 0x90 }
  - { offsetInCU: 0x8523, offset: 0x8523, size: 0x8, addend: 0x0, symName: __ZNSt3__113__unwrap_iterB7v160006INS_16reverse_iteratorIPP5TokenEENS_18__unwrap_iter_implIS5_Lb0EEELi0EEEDTclsrT0_8__unwrapclsr3stdE7declvalIT_EEEES9_, symObjAddr: 0x3B60, symBinAddr: 0x1000052F0, symSize: 0x40 }
  - { offsetInCU: 0x8567, offset: 0x8567, size: 0x8, addend: 0x0, symName: __ZNSt3__19make_pairB7v160006INS_16reverse_iteratorIPP5TokenEES5_EENS_4pairINS_18__unwrap_ref_decayIT_E4typeENS7_IT0_E4typeEEEOS8_OSB_, symObjAddr: 0x3BA0, symBinAddr: 0x100005330, symSize: 0x30 }
  - { offsetInCU: 0x85B6, offset: 0x85B6, size: 0x8, addend: 0x0, symName: __ZNSt3__114__rewrap_rangeB7v160006INS_16reverse_iteratorIPP5TokenEES5_EET_S6_T0_, symObjAddr: 0x3BD0, symBinAddr: 0x100005360, symSize: 0x60 }
  - { offsetInCU: 0x8602, offset: 0x8602, size: 0x8, addend: 0x0, symName: __ZNSt3__113__rewrap_iterB7v160006INS_16reverse_iteratorIPP5TokenEES5_NS_18__unwrap_iter_implIS5_Lb0EEEEET_S8_T0_, symObjAddr: 0x3C30, symBinAddr: 0x1000053C0, symSize: 0x80 }
  - { offsetInCU: 0x8709, offset: 0x8709, size: 0x8, addend: 0x0, symName: __ZNSt3__119__libcpp_deallocateB7v160006EPvmm, symObjAddr: 0x4010, symBinAddr: 0x1000057A0, symSize: 0x30 }
  - { offsetInCU: 0x8751, offset: 0x8751, size: 0x8, addend: 0x0, symName: __ZNSt3__127__do_deallocate_handle_sizeB7v160006IJEEEvPvmDpT_, symObjAddr: 0x4040, symBinAddr: 0x1000057D0, symSize: 0x20 }
  - { offsetInCU: 0x878F, offset: 0x878F, size: 0x8, addend: 0x0, symName: __ZNSt3__124__libcpp_operator_deleteB7v160006IJPvEEEvDpT_, symObjAddr: 0x4060, symBinAddr: 0x1000057F0, symSize: 0x20 }
  - { offsetInCU: 0x87C4, offset: 0x87C4, size: 0x8, addend: 0x0, symName: __ZNSt3__118__constexpr_strlenB7v160006EPKc, symObjAddr: 0x44F0, symBinAddr: 0x100005C80, symSize: 0x20 }
  - { offsetInCU: 0x87F0, offset: 0x87F0, size: 0x8, addend: 0x0, symName: __ZNSt3__116__pad_and_outputB7v160006IcNS_11char_traitsIcEEEENS_19ostreambuf_iteratorIT_T0_EES6_PKS4_S8_S8_RNS_8ios_baseES4_, symObjAddr: 0x49D0, symBinAddr: 0x100006160, symSize: 0x220 }
  - { offsetInCU: 0x88C0, offset: 0x88C0, size: 0x8, addend: 0x0, symName: __ZNSt3__112__to_addressB7v160006IKcEEPT_S3_, symObjAddr: 0x4DB0, symBinAddr: 0x100006540, symSize: 0x10 }
  - { offsetInCU: 0x8928, offset: 0x8928, size: 0x8, addend: 0x0, symName: __ZNSt3__19use_facetB7v160006INS_5ctypeIcEEEERKT_RKNS_6localeE, symObjAddr: 0x4FC0, symBinAddr: 0x100006750, symSize: 0x30 }
  - { offsetInCU: 0x8DF7, offset: 0x8DF7, size: 0x8, addend: 0x0, symName: __ZNSt3__118__debug_db_erase_cB7v160006INS_6vectorIP5TokenNS_9allocatorIS3_EEEEEEvPT_, symObjAddr: 0x5160, symBinAddr: 0x1000068F0, symSize: 0x10 }
  - { offsetInCU: 0x8E28, offset: 0x8E28, size: 0x8, addend: 0x0, symName: __ZNSt3__1eqB7v160006IPP5TokenEEbRKNS_11__wrap_iterIT_EES8_, symObjAddr: 0x5310, symBinAddr: 0x100006AA0, symSize: 0x40 }
  - { offsetInCU: 0x8E6B, offset: 0x8E6B, size: 0x8, addend: 0x0, symName: __ZNSt3__112__to_addressB7v160006IcEEPT_S2_, symObjAddr: 0x53D0, symBinAddr: 0x100006B60, symSize: 0x10 }
  - { offsetInCU: 0x90A2, offset: 0x90A2, size: 0x8, addend: 0x0, symName: __ZNSt3__14copyB7v160006IPKcPcEET0_T_S5_S4_, symObjAddr: 0x5860, symBinAddr: 0x100006FF0, symSize: 0x40 }
  - { offsetInCU: 0x90FC, offset: 0x90FC, size: 0x8, addend: 0x0, symName: __ZNSt3__16__copyB7v160006INS_17_ClassicAlgPolicyEPKcS3_PcEENS_4pairIT0_T2_EES6_T1_S7_, symObjAddr: 0x58A0, symBinAddr: 0x100007030, symSize: 0x40 }
  - { offsetInCU: 0x9168, offset: 0x9168, size: 0x8, addend: 0x0, symName: __ZNSt3__123__dispatch_copy_or_moveB7v160006INS_17_ClassicAlgPolicyENS_11__copy_loopIS1_EENS_14__copy_trivialEPKcS6_PcEENS_4pairIT2_T4_EES9_T3_SA_, symObjAddr: 0x58E0, symBinAddr: 0x100007070, symSize: 0x60 }
  - { offsetInCU: 0x91E6, offset: 0x91E6, size: 0x8, addend: 0x0, symName: __ZNSt3__121__unwrap_and_dispatchB7v160006INS_10__overloadINS_11__copy_loopINS_17_ClassicAlgPolicyEEENS_14__copy_trivialEEEPKcS8_PcLi0EEENS_4pairIT0_T2_EESB_T1_SC_, symObjAddr: 0x5940, symBinAddr: 0x1000070D0, symSize: 0xB0 }
  - { offsetInCU: 0x9275, offset: 0x9275, size: 0x8, addend: 0x0, symName: __ZNSt3__114__unwrap_rangeB7v160006IPKcS2_EENS_4pairIT0_S4_EET_S6_, symObjAddr: 0x59F0, symBinAddr: 0x100007180, symSize: 0x50 }
  - { offsetInCU: 0x93B4, offset: 0x93B4, size: 0x8, addend: 0x0, symName: __ZNSt3__113__unwrap_iterB7v160006IPcNS_18__unwrap_iter_implIS1_Lb1EEELi0EEEDTclsrT0_8__unwrapclsr3stdE7declvalIT_EEEES5_, symObjAddr: 0x5A80, symBinAddr: 0x100007210, symSize: 0x20 }
  - { offsetInCU: 0x93F8, offset: 0x93F8, size: 0x8, addend: 0x0, symName: __ZNSt3__19make_pairB7v160006IPKcPcEENS_4pairINS_18__unwrap_ref_decayIT_E4typeENS5_IT0_E4typeEEEOS6_OS9_, symObjAddr: 0x5AA0, symBinAddr: 0x100007230, symSize: 0x30 }
  - { offsetInCU: 0x9447, offset: 0x9447, size: 0x8, addend: 0x0, symName: __ZNSt3__114__rewrap_rangeB7v160006IPKcS2_EET_S3_T0_, symObjAddr: 0x5AD0, symBinAddr: 0x100007260, symSize: 0x30 }
  - { offsetInCU: 0x9493, offset: 0x9493, size: 0x8, addend: 0x0, symName: __ZNSt3__113__rewrap_iterB7v160006IPcS1_NS_18__unwrap_iter_implIS1_Lb1EEEEET_S4_T0_, symObjAddr: 0x5B00, symBinAddr: 0x100007290, symSize: 0x50 }
  - { offsetInCU: 0x94E8, offset: 0x94E8, size: 0x8, addend: 0x0, symName: __ZNSt3__19make_pairB7v160006IPKcS2_EENS_4pairINS_18__unwrap_ref_decayIT_E4typeENS4_IT0_E4typeEEEOS5_OS8_, symObjAddr: 0x5B50, symBinAddr: 0x1000072E0, symSize: 0x30 }
  - { offsetInCU: 0x9537, offset: 0x9537, size: 0x8, addend: 0x0, symName: __ZNSt3__113__unwrap_iterB7v160006IPKcNS_18__unwrap_iter_implIS2_Lb1EEELi0EEEDTclsrT0_8__unwrapclsr3stdE7declvalIT_EEEES6_, symObjAddr: 0x5B80, symBinAddr: 0x100007310, symSize: 0x20 }
  - { offsetInCU: 0x967B, offset: 0x967B, size: 0x8, addend: 0x0, symName: __ZNSt3__119__copy_trivial_implB7v160006IKccEENS_4pairIPT_PT0_EES4_S4_S6_, symObjAddr: 0x5C20, symBinAddr: 0x1000073B0, symSize: 0x70 }
  - { offsetInCU: 0x96E3, offset: 0x96E3, size: 0x8, addend: 0x0, symName: __ZNSt3__19make_pairB7v160006IRPKcPcEENS_4pairINS_18__unwrap_ref_decayIT_E4typeENS6_IT0_E4typeEEEOS7_OSA_, symObjAddr: 0x5C90, symBinAddr: 0x100007420, symSize: 0x30 }
  - { offsetInCU: 0x9785, offset: 0x9785, size: 0x8, addend: 0x0, symName: __ZNSt3__113__rewrap_iterB7v160006IPKcS2_NS_18__unwrap_iter_implIS2_Lb1EEEEET_S5_T0_, symObjAddr: 0x5D40, symBinAddr: 0x1000074D0, symSize: 0x50 }
  - { offsetInCU: 0x97DA, offset: 0x97DA, size: 0x8, addend: 0x0, symName: __ZNSt3__16fill_nB7v160006IPcmcEET_S2_T0_RKT1_, symObjAddr: 0x5E10, symBinAddr: 0x1000075A0, symSize: 0x40 }
  - { offsetInCU: 0x983D, offset: 0x983D, size: 0x8, addend: 0x0, symName: __ZNSt3__18__fill_nB7v160006IPcmcEET_S2_T0_RKT1_, symObjAddr: 0x5E50, symBinAddr: 0x1000075E0, symSize: 0x50 }
  - { offsetInCU: 0x98A0, offset: 0x98A0, size: 0x8, addend: 0x0, symName: __ZNSt3__121__convert_to_integralB7v160006Em, symObjAddr: 0x5EA0, symBinAddr: 0x100007630, symSize: 0xE }
  - { offsetInCU: 0x9B1F, offset: 0x9B1F, size: 0x8, addend: 0x0, symName: __ZSt28__throw_bad_array_new_lengthB7v160006v, symObjAddr: 0x1A60, symBinAddr: 0x1000031F0, symSize: 0x40 }
  - { offsetInCU: 0x9FE7, offset: 0x9FE7, size: 0x8, addend: 0x0, symName: __ZNSt3__16vectorIP5TokenNS_9allocatorIS2_EEE26__swap_out_circular_bufferERNS_14__split_bufferIS2_RS4_EE, symObjAddr: 0x29D0, symBinAddr: 0x100004160, symSize: 0x130 }
  - { offsetInCU: 0xA1A0, offset: 0xA1A0, size: 0x8, addend: 0x0, symName: __Z7isalnumi, symObjAddr: 0x40C0, symBinAddr: 0x100005850, symSize: 0x20 }
  - { offsetInCU: 0xA1CC, offset: 0xA1CC, size: 0x8, addend: 0x0, symName: __Z7isalphai, symObjAddr: 0x1D10, symBinAddr: 0x1000034A0, symSize: 0x20 }
  - { offsetInCU: 0xA222, offset: 0xA222, size: 0x8, addend: 0x0, symName: __Z7isdigiti, symObjAddr: 0x1F90, symBinAddr: 0x100003720, symSize: 0x20 }
  - { offsetInCU: 0xC3AF, offset: 0xC3AF, size: 0x8, addend: 0x0, symName: __Z7strTYPE4Type, symObjAddr: 0x0, symBinAddr: 0x100001790, symSize: 0xF0 }
  - { offsetInCU: 0xC3E1, offset: 0xC3E1, size: 0x8, addend: 0x0, symName: __ZNSt3__112basic_stringIcNS_11char_traitsIcEENS_9allocatorIcEEEC1B7v160006IDnEEPKc, symObjAddr: 0xF0, symBinAddr: 0x100001880, symSize: 0x30 }
  - { offsetInCU: 0xC41F, offset: 0xC41F, size: 0x8, addend: 0x0, symName: _main, symObjAddr: 0x120, symBinAddr: 0x1000018B0, symSize: 0x750 }
  - { offsetInCU: 0xC506, offset: 0xC506, size: 0x8, addend: 0x0, symName: __ZNSt3__113basic_ostreamIcNS_11char_traitsIcEEElsB7v160006EPFRS3_S4_E, symObjAddr: 0x8B0, symBinAddr: 0x100002040, symSize: 0x20 }
  - { offsetInCU: 0xC65D, offset: 0xC65D, size: 0x8, addend: 0x0, symName: __ZNSt3__114basic_ifstreamIcNS_11char_traitsIcEEEC1EPKcj, symObjAddr: 0x920, symBinAddr: 0x1000020B0, symSize: 0x180 }
  - { offsetInCU: 0xC6A7, offset: 0xC6A7, size: 0x8, addend: 0x0, symName: __ZNKSt3__114basic_ifstreamIcNS_11char_traitsIcEEE7is_openEv, symObjAddr: 0xAA0, symBinAddr: 0x100002230, symSize: 0x30 }
  - { offsetInCU: 0xC72D, offset: 0xC72D, size: 0x8, addend: 0x0, symName: __ZNSt3__118basic_stringstreamIcNS_11char_traitsIcEENS_9allocatorIcEEEC1B7v160006Ev, symObjAddr: 0xAD0, symBinAddr: 0x100002260, symSize: 0x110 }
  - { offsetInCU: 0xC757, offset: 0xC757, size: 0x8, addend: 0x0, symName: __ZNSt3__113basic_istreamIcNS_11char_traitsIcEEE3getB7v160006ERc, symObjAddr: 0xBE0, symBinAddr: 0x100002370, symSize: 0x60 }
  - { offsetInCU: 0xC799, offset: 0xC799, size: 0x8, addend: 0x0, symName: __ZNKSt3__19basic_iosIcNS_11char_traitsIcEEEcvPvB7v160006Ev, symObjAddr: 0xC40, symBinAddr: 0x1000023D0, symSize: 0x50 }
  - { offsetInCU: 0xC7BF, offset: 0xC7BF, size: 0x8, addend: 0x0, symName: __ZNKSt3__118basic_stringstreamIcNS_11char_traitsIcEENS_9allocatorIcEEE3strB7v160006Ev, symObjAddr: 0xCC0, symBinAddr: 0x100002450, symSize: 0x30 }
  - { offsetInCU: 0xC909, offset: 0xC909, size: 0x8, addend: 0x0, symName: __ZN5LexerC1ENSt3__112basic_stringIcNS0_11char_traitsIcEENS0_9allocatorIcEEEE, symObjAddr: 0xD40, symBinAddr: 0x1000024D0, symSize: 0x20 }
  - { offsetInCU: 0xC942, offset: 0xC942, size: 0x8, addend: 0x0, symName: __ZN5Lexer8tokenizeEv, symObjAddr: 0xD70, symBinAddr: 0x100002500, symSize: 0x460 }
  - { offsetInCU: 0xC985, offset: 0xC985, size: 0x8, addend: 0x0, symName: __ZNSt3__16vectorIP5TokenNS_9allocatorIS2_EEE5beginB7v160006Ev, symObjAddr: 0x11D0, symBinAddr: 0x100002960, symSize: 0x30 }
  - { offsetInCU: 0xC9AC, offset: 0xC9AC, size: 0x8, addend: 0x0, symName: __ZNSt3__16vectorIP5TokenNS_9allocatorIS2_EEE3endB7v160006Ev, symObjAddr: 0x1200, symBinAddr: 0x100002990, symSize: 0x30 }
  - { offsetInCU: 0xC9D3, offset: 0xC9D3, size: 0x8, addend: 0x0, symName: __ZNKSt3__111__wrap_iterIPP5TokenEdeB7v160006Ev, symObjAddr: 0x1260, symBinAddr: 0x1000029F0, symSize: 0x20 }
  - { offsetInCU: 0xC9F9, offset: 0xC9F9, size: 0x8, addend: 0x0, symName: __ZNSt3__111__wrap_iterIPP5TokenEppB7v160006Ev, symObjAddr: 0x1380, symBinAddr: 0x100002B10, symSize: 0x20 }
  - { offsetInCU: 0xCA1F, offset: 0xCA1F, size: 0x8, addend: 0x0, symName: __ZNSt3__16vectorIP5TokenNS_9allocatorIS2_EEED1B7v160006Ev, symObjAddr: 0x13A0, symBinAddr: 0x100002B30, symSize: 0x20 }
  - { offsetInCU: 0xCA49, offset: 0xCA49, size: 0x8, addend: 0x0, symName: __ZN5LexerD1Ev, symObjAddr: 0x13C0, symBinAddr: 0x100002B50, symSize: 0x20 }
  - { offsetInCU: 0xCA7A, offset: 0xCA7A, size: 0x8, addend: 0x0, symName: __ZNSt3__118basic_stringstreamIcNS_11char_traitsIcEENS_9allocatorIcEEED1Ev, symObjAddr: 0x13E0, symBinAddr: 0x100002B70, symSize: 0x70 }
  - { offsetInCU: 0xCAAC, offset: 0xCAAC, size: 0x8, addend: 0x0, symName: __ZNSt3__114basic_ifstreamIcNS_11char_traitsIcEEED1Ev, symObjAddr: 0x1450, symBinAddr: 0x100002BE0, symSize: 0x80 }
  - { offsetInCU: 0xCAD9, offset: 0xCAD9, size: 0x8, addend: 0x0, symName: __ZN5LexerC2ENSt3__112basic_stringIcNS0_11char_traitsIcEENS0_9allocatorIcEEEE, symObjAddr: 0x14D0, symBinAddr: 0x100002C60, symSize: 0xC0 }
  - { offsetInCU: 0xCB12, offset: 0xCB12, size: 0x8, addend: 0x0, symName: __ZNSt3__112basic_stringIcNS_11char_traitsIcEENS_9allocatorIcEEEC1B7v160006Ev, symObjAddr: 0x1590, symBinAddr: 0x100002D20, symSize: 0x20 }
  - { offsetInCU: 0xCB3C, offset: 0xCB3C, size: 0x8, addend: 0x0, symName: __ZNKSt3__112basic_stringIcNS_11char_traitsIcEENS_9allocatorIcEEE6lengthB7v160006Ev, symObjAddr: 0x15B0, symBinAddr: 0x100002D40, symSize: 0x20 }
  - { offsetInCU: 0xCB62, offset: 0xCB62, size: 0x8, addend: 0x0, symName: __ZNSt3__112basic_stringIcNS_11char_traitsIcEENS_9allocatorIcEEEC2B7v160006Ev, symObjAddr: 0x15D0, symBinAddr: 0x100002D60, symSize: 0x40 }
  - { offsetInCU: 0xCB91, offset: 0xCB91, size: 0x8, addend: 0x0, symName: __ZNSt3__117__compressed_pairINS_12basic_stringIcNS_11char_traitsIcEENS_9allocatorIcEEE5__repES5_EC1B7v160006INS_18__default_init_tagESA_EEOT_OT0_, symObjAddr: 0x1610, symBinAddr: 0x100002DA0, symSize: 0x30 }
  - { offsetInCU: 0xCBE9, offset: 0xCBE9, size: 0x8, addend: 0x0, symName: __ZNSt3__112basic_stringIcNS_11char_traitsIcEENS_9allocatorIcEEE14__default_initB7v160006Ev, symObjAddr: 0x1650, symBinAddr: 0x100002DE0, symSize: 0xC0 }
  - { offsetInCU: 0xCC3C, offset: 0xCC3C, size: 0x8, addend: 0x0, symName: __ZNSt3__117__compressed_pairINS_12basic_stringIcNS_11char_traitsIcEENS_9allocatorIcEEE5__repES5_EC2B7v160006INS_18__default_init_tagESA_EEOT_OT0_, symObjAddr: 0x1710, symBinAddr: 0x100002EA0, symSize: 0x30 }
  - { offsetInCU: 0xCC94, offset: 0xCC94, size: 0x8, addend: 0x0, symName: __ZNSt3__122__compressed_pair_elemINS_12basic_stringIcNS_11char_traitsIcEENS_9allocatorIcEEE5__repELi0ELb0EEC2B7v160006ENS_18__default_init_tagE, symObjAddr: 0x1740, symBinAddr: 0x100002ED0, symSize: 0x10 }
  - { offsetInCU: 0xCCC9, offset: 0xCCC9, size: 0x8, addend: 0x0, symName: __ZNSt3__122__compressed_pair_elemINS_9allocatorIcEELi1ELb1EEC2B7v160006ENS_18__default_init_tagE, symObjAddr: 0x1750, symBinAddr: 0x100002EE0, symSize: 0x20 }
  - { offsetInCU: 0xCCFE, offset: 0xCCFE, size: 0x8, addend: 0x0, symName: __ZNSt3__19allocatorIcEC2B7v160006Ev, symObjAddr: 0x1770, symBinAddr: 0x100002F00, symSize: 0x20 }
  - { offsetInCU: 0xCD28, offset: 0xCD28, size: 0x8, addend: 0x0, symName: __ZNSt3__116__non_trivial_ifILb1ENS_9allocatorIcEEEC2B7v160006Ev, symObjAddr: 0x1790, symBinAddr: 0x100002F20, symSize: 0x10 }
  - { offsetInCU: 0xCD52, offset: 0xCD52, size: 0x8, addend: 0x0, symName: __ZNSt3__117__compressed_pairINS_12basic_stringIcNS_11char_traitsIcEENS_9allocatorIcEEE5__repES5_E5firstB7v160006Ev, symObjAddr: 0x17A0, symBinAddr: 0x100002F30, symSize: 0x20 }
  - { offsetInCU: 0xCD78, offset: 0xCD78, size: 0x8, addend: 0x0, symName: __ZNSt3__112basic_stringIcNS_11char_traitsIcEENS_9allocatorIcEEE11__recommendB7v160006Em, symObjAddr: 0x17D0, symBinAddr: 0x100002F60, symSize: 0x90 }
  - { offsetInCU: 0xCDAB, offset: 0xCDAB, size: 0x8, addend: 0x0, symName: __ZNSt3__116allocator_traitsINS_9allocatorIcEEE8allocateB7v160006ERS2_m, symObjAddr: 0x1860, symBinAddr: 0x100002FF0, symSize: 0x30 }
  - { offsetInCU: 0xCDDE, offset: 0xCDDE, size: 0x8, addend: 0x0, symName: __ZNSt3__112basic_stringIcNS_11char_traitsIcEENS_9allocatorIcEEE7__allocB7v160006Ev, symObjAddr: 0x1890, symBinAddr: 0x100003020, symSize: 0x20 }
  - { offsetInCU: 0xCE04, offset: 0xCE04, size: 0x8, addend: 0x0, symName: __ZNSt3__112basic_stringIcNS_11char_traitsIcEENS_9allocatorIcEEE16__begin_lifetimeB7v160006EPcm, symObjAddr: 0x18B0, symBinAddr: 0x100003040, symSize: 0x10 }
  - { offsetInCU: 0xCE37, offset: 0xCE37, size: 0x8, addend: 0x0, symName: __ZNSt3__112basic_stringIcNS_11char_traitsIcEENS_9allocatorIcEEE18__set_long_pointerB7v160006EPc, symObjAddr: 0x18C0, symBinAddr: 0x100003050, symSize: 0x30 }
  - { offsetInCU: 0xCE6C, offset: 0xCE6C, size: 0x8, addend: 0x0, symName: __ZNSt3__112basic_stringIcNS_11char_traitsIcEENS_9allocatorIcEEE14__set_long_capB7v160006Em, symObjAddr: 0x18F0, symBinAddr: 0x100003080, symSize: 0x70 }
  - { offsetInCU: 0xCEA1, offset: 0xCEA1, size: 0x8, addend: 0x0, symName: __ZNSt3__112basic_stringIcNS_11char_traitsIcEENS_9allocatorIcEEE15__set_long_sizeB7v160006Em, symObjAddr: 0x1960, symBinAddr: 0x1000030F0, symSize: 0x30 }
  - { offsetInCU: 0xCED6, offset: 0xCED6, size: 0x8, addend: 0x0, symName: __ZNSt3__122__compressed_pair_elemINS_12basic_stringIcNS_11char_traitsIcEENS_9allocatorIcEEE5__repELi0ELb0EE5__getB7v160006Ev, symObjAddr: 0x1990, symBinAddr: 0x100003120, symSize: 0x10 }
  - { offsetInCU: 0xCEFC, offset: 0xCEFC, size: 0x8, addend: 0x0, symName: __ZNSt3__112basic_stringIcNS_11char_traitsIcEENS_9allocatorIcEEE10__align_itB7v160006ILm16EEEmm, symObjAddr: 0x19A0, symBinAddr: 0x100003130, symSize: 0x20 }
  - { offsetInCU: 0xCF2A, offset: 0xCF2A, size: 0x8, addend: 0x0, symName: __ZNSt3__19allocatorIcE8allocateB7v160006Em, symObjAddr: 0x19C0, symBinAddr: 0x100003150, symSize: 0x80 }
  - { offsetInCU: 0xCF68, offset: 0xCF68, size: 0x8, addend: 0x0, symName: __ZNSt3__116allocator_traitsINS_9allocatorIcEEE8max_sizeB7v160006IS2_vEEmRKS2_, symObjAddr: 0x1A40, symBinAddr: 0x1000031D0, symSize: 0x20 }
  - { offsetInCU: 0xCF96, offset: 0xCF96, size: 0x8, addend: 0x0, symName: __ZNKSt3__19allocatorIcE8max_sizeB7v160006Ev, symObjAddr: 0x1AC0, symBinAddr: 0x100003250, symSize: 0x20 }
  - { offsetInCU: 0xCFBC, offset: 0xCFBC, size: 0x8, addend: 0x0, symName: __ZNSt3__117__compressed_pairINS_12basic_stringIcNS_11char_traitsIcEENS_9allocatorIcEEE5__repES5_E6secondB7v160006Ev, symObjAddr: 0x1B00, symBinAddr: 0x100003290, symSize: 0x20 }
  - { offsetInCU: 0xCFE2, offset: 0xCFE2, size: 0x8, addend: 0x0, symName: __ZNSt3__122__compressed_pair_elemINS_9allocatorIcEELi1ELb1EE5__getB7v160006Ev, symObjAddr: 0x1B20, symBinAddr: 0x1000032B0, symSize: 0x10 }
  - { offsetInCU: 0xD008, offset: 0xD008, size: 0x8, addend: 0x0, symName: __ZNKSt3__112basic_stringIcNS_11char_traitsIcEENS_9allocatorIcEEE4sizeB7v160006Ev, symObjAddr: 0x1B30, symBinAddr: 0x1000032C0, symSize: 0x50 }
  - { offsetInCU: 0xD02E, offset: 0xD02E, size: 0x8, addend: 0x0, symName: __ZNKSt3__112basic_stringIcNS_11char_traitsIcEENS_9allocatorIcEEE9__is_longB7v160006Ev, symObjAddr: 0x1B80, symBinAddr: 0x100003310, symSize: 0x60 }
  - { offsetInCU: 0xD054, offset: 0xD054, size: 0x8, addend: 0x0, symName: __ZNKSt3__112basic_stringIcNS_11char_traitsIcEENS_9allocatorIcEEE15__get_long_sizeB7v160006Ev, symObjAddr: 0x1BE0, symBinAddr: 0x100003370, symSize: 0x20 }
  - { offsetInCU: 0xD07A, offset: 0xD07A, size: 0x8, addend: 0x0, symName: __ZNKSt3__112basic_stringIcNS_11char_traitsIcEENS_9allocatorIcEEE16__get_short_sizeB7v160006Ev, symObjAddr: 0x1C00, symBinAddr: 0x100003390, symSize: 0x30 }
  - { offsetInCU: 0xD0A0, offset: 0xD0A0, size: 0x8, addend: 0x0, symName: __ZNKSt3__117__compressed_pairINS_12basic_stringIcNS_11char_traitsIcEENS_9allocatorIcEEE5__repES5_E5firstB7v160006Ev, symObjAddr: 0x1C30, symBinAddr: 0x1000033C0, symSize: 0x20 }
  - { offsetInCU: 0xD0C6, offset: 0xD0C6, size: 0x8, addend: 0x0, symName: __ZNKSt3__122__compressed_pair_elemINS_12basic_stringIcNS_11char_traitsIcEENS_9allocatorIcEEE5__repELi0ELb0EE5__getB7v160006Ev, symObjAddr: 0x1C50, symBinAddr: 0x1000033E0, symSize: 0x10 }
  - { offsetInCU: 0xD0EC, offset: 0xD0EC, size: 0x8, addend: 0x0, symName: __ZNSt3__16vectorIP5TokenNS_9allocatorIS2_EEEC1B7v160006Ev, symObjAddr: 0x1C60, symBinAddr: 0x1000033F0, symSize: 0x20 }
  - { offsetInCU: 0xD116, offset: 0xD116, size: 0x8, addend: 0x0, symName: __ZN5Lexer12checkAndSkipEv, symObjAddr: 0x1C80, symBinAddr: 0x100003410, symSize: 0x90 }
  - { offsetInCU: 0xD13C, offset: 0xD13C, size: 0x8, addend: 0x0, symName: __ZNSt3__16vectorIP5TokenNS_9allocatorIS2_EEE9push_backB7v160006EOS2_, symObjAddr: 0x1D30, symBinAddr: 0x1000034C0, symSize: 0x60 }
  - { offsetInCU: 0xD172, offset: 0xD172, size: 0x8, addend: 0x0, symName: __ZN5Lexer10tokenizeIDE4Type, symObjAddr: 0x1D90, symBinAddr: 0x100003520, symSize: 0x200 }
  - { offsetInCU: 0xD1D3, offset: 0xD1D3, size: 0x8, addend: 0x0, symName: __ZN5Lexer11tokenizeIntE4Type, symObjAddr: 0x1FB0, symBinAddr: 0x100003740, symSize: 0x1D0 }
  - { offsetInCU: 0xD225, offset: 0xD225, size: 0x8, addend: 0x0, symName: __ZN5Lexer15tokenizeSpecialE4Type, symObjAddr: 0x2180, symBinAddr: 0x100003910, symSize: 0xF0 }
  - { offsetInCU: 0xD267, offset: 0xD267, size: 0x8, addend: 0x0, symName: __ZNSt3__16vectorIP5TokenNS_9allocatorIS2_EEEC2B7v160006Ev, symObjAddr: 0x2270, symBinAddr: 0x100003A00, symSize: 0x50 }
  - { offsetInCU: 0xD296, offset: 0xD296, size: 0x8, addend: 0x0, symName: __ZNSt3__117__compressed_pairIPP5TokenNS_9allocatorIS2_EEEC1B7v160006IDnNS_18__default_init_tagEEEOT_OT0_, symObjAddr: 0x22C0, symBinAddr: 0x100003A50, symSize: 0x30 }
  - { offsetInCU: 0xD2EE, offset: 0xD2EE, size: 0x8, addend: 0x0, symName: __ZNSt3__117__compressed_pairIPP5TokenNS_9allocatorIS2_EEEC2B7v160006IDnNS_18__default_init_tagEEEOT_OT0_, symObjAddr: 0x2300, symBinAddr: 0x100003A90, symSize: 0x40 }
  - { offsetInCU: 0xD346, offset: 0xD346, size: 0x8, addend: 0x0, symName: __ZNSt3__122__compressed_pair_elemIPP5TokenLi0ELb0EEC2B7v160006IDnvEEOT_, symObjAddr: 0x2340, symBinAddr: 0x100003AD0, symSize: 0x20 }
  - { offsetInCU: 0xD388, offset: 0xD388, size: 0x8, addend: 0x0, symName: __ZNSt3__122__compressed_pair_elemINS_9allocatorIP5TokenEELi1ELb1EEC2B7v160006ENS_18__default_init_tagE, symObjAddr: 0x2360, symBinAddr: 0x100003AF0, symSize: 0x20 }
  - { offsetInCU: 0xD3BD, offset: 0xD3BD, size: 0x8, addend: 0x0, symName: __ZNSt3__19allocatorIP5TokenEC2B7v160006Ev, symObjAddr: 0x2380, symBinAddr: 0x100003B10, symSize: 0x20 }
  - { offsetInCU: 0xD3E7, offset: 0xD3E7, size: 0x8, addend: 0x0, symName: __ZNSt3__116__non_trivial_ifILb1ENS_9allocatorIP5TokenEEEC2B7v160006Ev, symObjAddr: 0x23A0, symBinAddr: 0x100003B30, symSize: 0x10 }
  - { offsetInCU: 0xD411, offset: 0xD411, size: 0x8, addend: 0x0, symName: __ZN5Lexer7advanceEv, symObjAddr: 0x23B0, symBinAddr: 0x100003B40, symSize: 0x80 }
  - { offsetInCU: 0xD454, offset: 0xD454, size: 0x8, addend: 0x0, symName: __ZNSt3__112basic_stringIcNS_11char_traitsIcEENS_9allocatorIcEEEixB7v160006Em, symObjAddr: 0x2430, symBinAddr: 0x100003BC0, symSize: 0x30 }
  - { offsetInCU: 0xD489, offset: 0xD489, size: 0x8, addend: 0x0, symName: __ZNSt3__112basic_stringIcNS_11char_traitsIcEENS_9allocatorIcEEE13__get_pointerB7v160006Ev, symObjAddr: 0x2460, symBinAddr: 0x100003BF0, symSize: 0x50 }
  - { offsetInCU: 0xD4AF, offset: 0xD4AF, size: 0x8, addend: 0x0, symName: __ZNSt3__112basic_stringIcNS_11char_traitsIcEENS_9allocatorIcEEE18__get_long_pointerB7v160006Ev, symObjAddr: 0x24B0, symBinAddr: 0x100003C40, symSize: 0x20 }
  - { offsetInCU: 0xD4D5, offset: 0xD4D5, size: 0x8, addend: 0x0, symName: __ZNSt3__112basic_stringIcNS_11char_traitsIcEENS_9allocatorIcEEE19__get_short_pointerB7v160006Ev, symObjAddr: 0x24D0, symBinAddr: 0x100003C60, symSize: 0x30 }
  - { offsetInCU: 0xD4FB, offset: 0xD4FB, size: 0x8, addend: 0x0, symName: __ZNSt3__114pointer_traitsIPcE10pointer_toB7v160006ERc, symObjAddr: 0x2500, symBinAddr: 0x100003C90, symSize: 0x10 }
  - { offsetInCU: 0xD51D, offset: 0xD51D, size: 0x8, addend: 0x0, symName: __Z8__istypeim, symObjAddr: 0x2510, symBinAddr: 0x100003CA0, symSize: 0x70 }
  - { offsetInCU: 0xD557, offset: 0xD557, size: 0x8, addend: 0x0, symName: __Z7isasciii, symObjAddr: 0x2580, symBinAddr: 0x100003D10, symSize: 0x20 }
  - { offsetInCU: 0xD584, offset: 0xD584, size: 0x8, addend: 0x0, symName: __ZNSt3__16vectorIP5TokenNS_9allocatorIS2_EEE9__end_capB7v160006Ev, symObjAddr: 0x25A0, symBinAddr: 0x100003D30, symSize: 0x20 }
  - { offsetInCU: 0xD5AF, offset: 0xD5AF, size: 0x8, addend: 0x0, symName: __ZNSt3__16vectorIP5TokenNS_9allocatorIS2_EEE22__construct_one_at_endB7v160006IJS2_EEEvDpOT_, symObjAddr: 0x25C0, symBinAddr: 0x100003D50, symSize: 0xA0 }
  - { offsetInCU: 0xD5FE, offset: 0xD5FE, size: 0x8, addend: 0x0, symName: __ZNSt3__16vectorIP5TokenNS_9allocatorIS2_EEE21__push_back_slow_pathIS2_EEvOT_, symObjAddr: 0x2660, symBinAddr: 0x100003DF0, symSize: 0xE0 }
  - { offsetInCU: 0xD65B, offset: 0xD65B, size: 0x8, addend: 0x0, symName: __ZNSt3__117__compressed_pairIPP5TokenNS_9allocatorIS2_EEE5firstB7v160006Ev, symObjAddr: 0x2740, symBinAddr: 0x100003ED0, symSize: 0x20 }
  - { offsetInCU: 0xD681, offset: 0xD681, size: 0x8, addend: 0x0, symName: __ZNSt3__122__compressed_pair_elemIPP5TokenLi0ELb0EE5__getB7v160006Ev, symObjAddr: 0x2760, symBinAddr: 0x100003EF0, symSize: 0x10 }
  - { offsetInCU: 0xD6C0, offset: 0xD6C0, size: 0x8, addend: 0x0, symName: __ZNSt3__16vectorIP5TokenNS_9allocatorIS2_EEE21_ConstructTransactionC1B7v160006ERS5_m, symObjAddr: 0x2770, symBinAddr: 0x100003F00, symSize: 0x30 }
  - { offsetInCU: 0xD708, offset: 0xD708, size: 0x8, addend: 0x0, symName: __ZNSt3__116allocator_traitsINS_9allocatorIP5TokenEEE9constructB7v160006IS3_JS3_EvEEvRS4_PT_DpOT0_, symObjAddr: 0x27A0, symBinAddr: 0x100003F30, symSize: 0x30 }
  - { offsetInCU: 0xD75F, offset: 0xD75F, size: 0x8, addend: 0x0, symName: __ZNSt3__16vectorIP5TokenNS_9allocatorIS2_EEE7__allocB7v160006Ev, symObjAddr: 0x27D0, symBinAddr: 0x100003F60, symSize: 0x20 }
  - { offsetInCU: 0xD785, offset: 0xD785, size: 0x8, addend: 0x0, symName: __ZNSt3__16vectorIP5TokenNS_9allocatorIS2_EEE21_ConstructTransactionD1B7v160006Ev, symObjAddr: 0x2800, symBinAddr: 0x100003F90, symSize: 0x20 }
  - { offsetInCU: 0xD7AF, offset: 0xD7AF, size: 0x8, addend: 0x0, symName: __ZNSt3__16vectorIP5TokenNS_9allocatorIS2_EEE21_ConstructTransactionC2B7v160006ERS5_m, symObjAddr: 0x2820, symBinAddr: 0x100003FB0, symSize: 0x40 }
  - { offsetInCU: 0xD7F7, offset: 0xD7F7, size: 0x8, addend: 0x0, symName: __ZNSt3__19allocatorIP5TokenE9constructB7v160006IS2_JS2_EEEvPT_DpOT0_, symObjAddr: 0x2860, symBinAddr: 0x100003FF0, symSize: 0x20 }
  - { offsetInCU: 0xD84D, offset: 0xD84D, size: 0x8, addend: 0x0, symName: __ZNSt3__117__compressed_pairIPP5TokenNS_9allocatorIS2_EEE6secondB7v160006Ev, symObjAddr: 0x2880, symBinAddr: 0x100004010, symSize: 0x20 }
  - { offsetInCU: 0xD873, offset: 0xD873, size: 0x8, addend: 0x0, symName: __ZNSt3__122__compressed_pair_elemINS_9allocatorIP5TokenEELi1ELb1EE5__getB7v160006Ev, symObjAddr: 0x28A0, symBinAddr: 0x100004030, symSize: 0x10 }
  - { offsetInCU: 0xD899, offset: 0xD899, size: 0x8, addend: 0x0, symName: __ZNSt3__16vectorIP5TokenNS_9allocatorIS2_EEE21_ConstructTransactionD2B7v160006Ev, symObjAddr: 0x28B0, symBinAddr: 0x100004040, symSize: 0x20 }
  - { offsetInCU: 0xD8C3, offset: 0xD8C3, size: 0x8, addend: 0x0, symName: __ZNKSt3__16vectorIP5TokenNS_9allocatorIS2_EEE11__recommendB7v160006Em, symObjAddr: 0x28D0, symBinAddr: 0x100004060, symSize: 0xA0 }
  - { offsetInCU: 0xD917, offset: 0xD917, size: 0x8, addend: 0x0, symName: __ZNKSt3__16vectorIP5TokenNS_9allocatorIS2_EEE4sizeB7v160006Ev, symObjAddr: 0x2970, symBinAddr: 0x100004100, symSize: 0x20 }
  - { offsetInCU: 0xD93D, offset: 0xD93D, size: 0x8, addend: 0x0, symName: __ZNSt3__114__split_bufferIP5TokenRNS_9allocatorIS2_EEEC1EmmS5_, symObjAddr: 0x2990, symBinAddr: 0x100004120, symSize: 0x40 }
  - { offsetInCU: 0xD993, offset: 0xD993, size: 0x8, addend: 0x0, symName: __ZNSt3__114__split_bufferIP5TokenRNS_9allocatorIS2_EEED1Ev, symObjAddr: 0x2B00, symBinAddr: 0x100004290, symSize: 0x20 }
  - { offsetInCU: 0xD9BF, offset: 0xD9BF, size: 0x8, addend: 0x0, symName: __ZNKSt3__16vectorIP5TokenNS_9allocatorIS2_EEE8max_sizeEv, symObjAddr: 0x2B20, symBinAddr: 0x1000042B0, symSize: 0x70 }
  - { offsetInCU: 0xD9E6, offset: 0xD9E6, size: 0x8, addend: 0x0, symName: __ZNKSt3__16vectorIP5TokenNS_9allocatorIS2_EEE20__throw_length_errorB7v160006Ev, symObjAddr: 0x2B90, symBinAddr: 0x100004320, symSize: 0x20 }
  - { offsetInCU: 0xDA0C, offset: 0xDA0C, size: 0x8, addend: 0x0, symName: __ZNKSt3__16vectorIP5TokenNS_9allocatorIS2_EEE8capacityB7v160006Ev, symObjAddr: 0x2BB0, symBinAddr: 0x100004340, symSize: 0x30 }
  - { offsetInCU: 0xDA3C, offset: 0xDA3C, size: 0x8, addend: 0x0, symName: __ZNSt3__116allocator_traitsINS_9allocatorIP5TokenEEE8max_sizeB7v160006IS4_vEEmRKS4_, symObjAddr: 0x2C40, symBinAddr: 0x1000043D0, symSize: 0x20 }
  - { offsetInCU: 0xDA6A, offset: 0xDA6A, size: 0x8, addend: 0x0, symName: __ZNKSt3__16vectorIP5TokenNS_9allocatorIS2_EEE7__allocB7v160006Ev, symObjAddr: 0x2C60, symBinAddr: 0x1000043F0, symSize: 0x20 }
  - { offsetInCU: 0xDA90, offset: 0xDA90, size: 0x8, addend: 0x0, symName: __ZNSt3__114numeric_limitsIlE3maxB7v160006Ev, symObjAddr: 0x2C80, symBinAddr: 0x100004410, symSize: 0x10 }
  - { offsetInCU: 0xDAB8, offset: 0xDAB8, size: 0x8, addend: 0x0, symName: __ZNKSt3__16__lessImmEclB7v160006ERKmS3_, symObjAddr: 0x2CE0, symBinAddr: 0x100004470, symSize: 0x30 }
  - { offsetInCU: 0xDAFA, offset: 0xDAFA, size: 0x8, addend: 0x0, symName: __ZNKSt3__19allocatorIP5TokenE8max_sizeB7v160006Ev, symObjAddr: 0x2D10, symBinAddr: 0x1000044A0, symSize: 0x20 }
  - { offsetInCU: 0xDB20, offset: 0xDB20, size: 0x8, addend: 0x0, symName: __ZNKSt3__117__compressed_pairIPP5TokenNS_9allocatorIS2_EEE6secondB7v160006Ev, symObjAddr: 0x2D30, symBinAddr: 0x1000044C0, symSize: 0x20 }
  - { offsetInCU: 0xDB46, offset: 0xDB46, size: 0x8, addend: 0x0, symName: __ZNKSt3__122__compressed_pair_elemINS_9allocatorIP5TokenEELi1ELb1EE5__getB7v160006Ev, symObjAddr: 0x2D50, symBinAddr: 0x1000044E0, symSize: 0x10 }
  - { offsetInCU: 0xDB6C, offset: 0xDB6C, size: 0x8, addend: 0x0, symName: __ZNSt3__123__libcpp_numeric_limitsIlLb1EE3maxB7v160006Ev, symObjAddr: 0x2D60, symBinAddr: 0x1000044F0, symSize: 0x10 }
  - { offsetInCU: 0xDB80, offset: 0xDB80, size: 0x8, addend: 0x0, symName: __ZNSt12length_errorC1B7v160006EPKc, symObjAddr: 0x2DE0, symBinAddr: 0x100004570, symSize: 0x30 }
  - { offsetInCU: 0xDBB8, offset: 0xDBB8, size: 0x8, addend: 0x0, symName: __ZNSt12length_errorC2B7v160006EPKc, symObjAddr: 0x2E10, symBinAddr: 0x1000045A0, symSize: 0x40 }
  - { offsetInCU: 0xDBF0, offset: 0xDBF0, size: 0x8, addend: 0x0, symName: __ZNKSt3__16vectorIP5TokenNS_9allocatorIS2_EEE9__end_capB7v160006Ev, symObjAddr: 0x2E50, symBinAddr: 0x1000045E0, symSize: 0x20 }
  - { offsetInCU: 0xDC16, offset: 0xDC16, size: 0x8, addend: 0x0, symName: __ZNKSt3__117__compressed_pairIPP5TokenNS_9allocatorIS2_EEE5firstB7v160006Ev, symObjAddr: 0x2E70, symBinAddr: 0x100004600, symSize: 0x20 }
  - { offsetInCU: 0xDC3C, offset: 0xDC3C, size: 0x8, addend: 0x0, symName: __ZNKSt3__122__compressed_pair_elemIPP5TokenLi0ELb0EE5__getB7v160006Ev, symObjAddr: 0x2E90, symBinAddr: 0x100004620, symSize: 0x10 }
  - { offsetInCU: 0xDC62, offset: 0xDC62, size: 0x8, addend: 0x0, symName: __ZNSt3__114__split_bufferIP5TokenRNS_9allocatorIS2_EEEC2EmmS5_, symObjAddr: 0x2EF0, symBinAddr: 0x100004680, symSize: 0xD0 }
  - { offsetInCU: 0xDCD6, offset: 0xDCD6, size: 0x8, addend: 0x0, symName: __ZNSt3__117__compressed_pairIPP5TokenRNS_9allocatorIS2_EEEC1B7v160006IDnS6_EEOT_OT0_, symObjAddr: 0x2FC0, symBinAddr: 0x100004750, symSize: 0x30 }
  - { offsetInCU: 0xDD2E, offset: 0xDD2E, size: 0x8, addend: 0x0, symName: __ZNSt3__114__split_bufferIP5TokenRNS_9allocatorIS2_EEE7__allocB7v160006Ev, symObjAddr: 0x3030, symBinAddr: 0x1000047C0, symSize: 0x20 }
  - { offsetInCU: 0xDD54, offset: 0xDD54, size: 0x8, addend: 0x0, symName: __ZNSt3__114__split_bufferIP5TokenRNS_9allocatorIS2_EEE9__end_capB7v160006Ev, symObjAddr: 0x3050, symBinAddr: 0x1000047E0, symSize: 0x20 }
  - { offsetInCU: 0xDD7A, offset: 0xDD7A, size: 0x8, addend: 0x0, symName: __ZNSt3__117__compressed_pairIPP5TokenRNS_9allocatorIS2_EEEC2B7v160006IDnS6_EEOT_OT0_, symObjAddr: 0x3070, symBinAddr: 0x100004800, symSize: 0x40 }
  - { offsetInCU: 0xDDD2, offset: 0xDDD2, size: 0x8, addend: 0x0, symName: __ZNSt3__122__compressed_pair_elemIRNS_9allocatorIP5TokenEELi1ELb0EEC2B7v160006IS5_vEEOT_, symObjAddr: 0x30B0, symBinAddr: 0x100004840, symSize: 0x20 }
  - { offsetInCU: 0xDE14, offset: 0xDE14, size: 0x8, addend: 0x0, symName: __ZNSt3__19allocatorIP5TokenE8allocateB7v160006Em, symObjAddr: 0x30D0, symBinAddr: 0x100004860, symSize: 0x80 }
  - { offsetInCU: 0xDE48, offset: 0xDE48, size: 0x8, addend: 0x0, symName: __ZNSt3__117__compressed_pairIPP5TokenRNS_9allocatorIS2_EEE6secondB7v160006Ev, symObjAddr: 0x3150, symBinAddr: 0x1000048E0, symSize: 0x20 }
  - { offsetInCU: 0xDE6E, offset: 0xDE6E, size: 0x8, addend: 0x0, symName: __ZNSt3__122__compressed_pair_elemIRNS_9allocatorIP5TokenEELi1ELb0EE5__getB7v160006Ev, symObjAddr: 0x3170, symBinAddr: 0x100004900, symSize: 0x20 }
  - { offsetInCU: 0xDE94, offset: 0xDE94, size: 0x8, addend: 0x0, symName: __ZNSt3__117__compressed_pairIPP5TokenRNS_9allocatorIS2_EEE5firstB7v160006Ev, symObjAddr: 0x3190, symBinAddr: 0x100004920, symSize: 0x20 }
  - { offsetInCU: 0xDEBA, offset: 0xDEBA, size: 0x8, addend: 0x0, symName: __ZNKSt3__16vectorIP5TokenNS_9allocatorIS2_EEE17__annotate_deleteB7v160006Ev, symObjAddr: 0x31B0, symBinAddr: 0x100004940, symSize: 0xB0 }
  - { offsetInCU: 0xDEE0, offset: 0xDEE0, size: 0x8, addend: 0x0, symName: __ZNSt3__116reverse_iteratorIPP5TokenEC1B7v160006ES3_, symObjAddr: 0x3380, symBinAddr: 0x100004B10, symSize: 0x30 }
  - { offsetInCU: 0xDF18, offset: 0xDF18, size: 0x8, addend: 0x0, symName: __ZNKSt3__116reverse_iteratorIPP5TokenE4baseB7v160006Ev, symObjAddr: 0x33B0, symBinAddr: 0x100004B40, symSize: 0x20 }
  - { offsetInCU: 0xDF3E, offset: 0xDF3E, size: 0x8, addend: 0x0, symName: __ZNKSt3__16vectorIP5TokenNS_9allocatorIS2_EEE14__annotate_newB7v160006Em, symObjAddr: 0x3410, symBinAddr: 0x100004BA0, symSize: 0xB0 }
  - { offsetInCU: 0xDF73, offset: 0xDF73, size: 0x8, addend: 0x0, symName: __ZNKSt3__16vectorIP5TokenNS_9allocatorIS2_EEE31__annotate_contiguous_containerB7v160006EPKvS7_S7_S7_, symObjAddr: 0x34D0, symBinAddr: 0x100004C60, symSize: 0x20 }
  - { offsetInCU: 0xDFC5, offset: 0xDFC5, size: 0x8, addend: 0x0, symName: __ZNKSt3__16vectorIP5TokenNS_9allocatorIS2_EEE4dataB7v160006Ev, symObjAddr: 0x34F0, symBinAddr: 0x100004C80, symSize: 0x20 }
  - { offsetInCU: 0xDFEB, offset: 0xDFEB, size: 0x8, addend: 0x0, symName: __ZNKSt3__116reverse_iteratorIPP5TokenEdeB7v160006Ev, symObjAddr: 0x35A0, symBinAddr: 0x100004D30, symSize: 0x30 }
  - { offsetInCU: 0xE01F, offset: 0xE01F, size: 0x8, addend: 0x0, symName: __ZNSt3__116reverse_iteratorIPP5TokenEppB7v160006Ev, symObjAddr: 0x35D0, symBinAddr: 0x100004D60, symSize: 0x20 }
  - { offsetInCU: 0xE04A, offset: 0xE04A, size: 0x8, addend: 0x0, symName: __ZNSt3__119__to_address_helperINS_16reverse_iteratorIPP5TokenEEvE6__callB7v160006ERKS5_, symObjAddr: 0x3670, symBinAddr: 0x100004E00, symSize: 0x50 }
  - { offsetInCU: 0xE06D, offset: 0xE06D, size: 0x8, addend: 0x0, symName: __ZNKSt3__116reverse_iteratorIPP5TokenEptB7v160006Ev, symObjAddr: 0x36C0, symBinAddr: 0x100004E50, symSize: 0x20 }
  - { offsetInCU: 0xE0B6, offset: 0xE0B6, size: 0x8, addend: 0x0, symName: __ZNKSt3__111__move_loopINS_17_ClassicAlgPolicyEEclB7v160006INS_16reverse_iteratorIPP5TokenEES8_S8_EENS_4pairIT_T1_EESA_T0_SB_, symObjAddr: 0x3AC0, symBinAddr: 0x100005250, symSize: 0xA0 }
  - { offsetInCU: 0xE121, offset: 0xE121, size: 0x8, addend: 0x0, symName: __ZNSt3__18_IterOpsINS_17_ClassicAlgPolicyEE11__iter_moveB7v160006IRNS_16reverse_iteratorIPP5TokenEEEENS_9enable_ifIXsr12is_referenceIDTdeclsr3stdE7declvalIRT_EEEEE5valueEDTclsr3stdE4movedeclsr3stdE7declvalISC_EEEEE4typeEOSB_, symObjAddr: 0x3CB0, symBinAddr: 0x100005440, symSize: 0x20 }
  - { offsetInCU: 0xE14D, offset: 0xE14D, size: 0x8, addend: 0x0, symName: __ZNSt3__18_IterOpsINS_17_ClassicAlgPolicyEE25__validate_iter_referenceB7v160006IRNS_16reverse_iteratorIPP5TokenEEEEvv, symObjAddr: 0x3CD0, symBinAddr: 0x100005460, symSize: 0x10 }
  - { offsetInCU: 0xE16B, offset: 0xE16B, size: 0x8, addend: 0x0, symName: __ZNSt3__118__unwrap_iter_implINS_16reverse_iteratorIPP5TokenEELb0EE8__unwrapB7v160006ES5_, symObjAddr: 0x3CE0, symBinAddr: 0x100005470, symSize: 0x20 }
  - { offsetInCU: 0xE18E, offset: 0xE18E, size: 0x8, addend: 0x0, symName: __ZNSt3__14pairINS_16reverse_iteratorIPP5TokenEES5_EC1B7v160006ERKS5_S8_, symObjAddr: 0x3D00, symBinAddr: 0x100005490, symSize: 0x30 }
  - { offsetInCU: 0xE1D4, offset: 0xE1D4, size: 0x8, addend: 0x0, symName: __ZNSt3__14pairINS_16reverse_iteratorIPP5TokenEES5_EC2B7v160006ERKS5_S8_, symObjAddr: 0x3D30, symBinAddr: 0x1000054C0, symSize: 0x40 }
  - { offsetInCU: 0xE21A, offset: 0xE21A, size: 0x8, addend: 0x0, symName: __ZNSt3__118__unwrap_iter_implINS_16reverse_iteratorIPP5TokenEELb0EE8__rewrapB7v160006ES5_S5_, symObjAddr: 0x3D70, symBinAddr: 0x100005500, symSize: 0x30 }
  - { offsetInCU: 0xE248, offset: 0xE248, size: 0x8, addend: 0x0, symName: __ZNSt3__116reverse_iteratorIPP5TokenEC2B7v160006ES3_, symObjAddr: 0x3DA0, symBinAddr: 0x100005530, symSize: 0x30 }
  - { offsetInCU: 0xE280, offset: 0xE280, size: 0x8, addend: 0x0, symName: __ZNSt3__114__split_bufferIP5TokenRNS_9allocatorIS2_EEED2Ev, symObjAddr: 0x3DD0, symBinAddr: 0x100005560, symSize: 0x60 }
  - { offsetInCU: 0xE2AC, offset: 0xE2AC, size: 0x8, addend: 0x0, symName: __ZNSt3__114__split_bufferIP5TokenRNS_9allocatorIS2_EEE5clearB7v160006Ev, symObjAddr: 0x3E30, symBinAddr: 0x1000055C0, symSize: 0x20 }
  - { offsetInCU: 0xE2D2, offset: 0xE2D2, size: 0x8, addend: 0x0, symName: __ZNSt3__116allocator_traitsINS_9allocatorIP5TokenEEE10deallocateB7v160006ERS4_PS3_m, symObjAddr: 0x3E50, symBinAddr: 0x1000055E0, symSize: 0x30 }
  - { offsetInCU: 0xE314, offset: 0xE314, size: 0x8, addend: 0x0, symName: __ZNKSt3__114__split_bufferIP5TokenRNS_9allocatorIS2_EEE8capacityB7v160006Ev, symObjAddr: 0x3E80, symBinAddr: 0x100005610, symSize: 0x30 }
  - { offsetInCU: 0xE33A, offset: 0xE33A, size: 0x8, addend: 0x0, symName: __ZNSt3__114__split_bufferIP5TokenRNS_9allocatorIS2_EEE17__destruct_at_endB7v160006EPS2_, symObjAddr: 0x3EB0, symBinAddr: 0x100005640, symSize: 0x30 }
  - { offsetInCU: 0xE36E, offset: 0xE36E, size: 0x8, addend: 0x0, symName: __ZNSt3__114__split_bufferIP5TokenRNS_9allocatorIS2_EEE17__destruct_at_endB7v160006EPS2_NS_17integral_constantIbLb0EEE, symObjAddr: 0x3EE0, symBinAddr: 0x100005670, symSize: 0x80 }
  - { offsetInCU: 0xE3AE, offset: 0xE3AE, size: 0x8, addend: 0x0, symName: __ZNSt3__116allocator_traitsINS_9allocatorIP5TokenEEE7destroyB7v160006IS3_vEEvRS4_PT_, symObjAddr: 0x3F60, symBinAddr: 0x1000056F0, symSize: 0x30 }
  - { offsetInCU: 0xE3EB, offset: 0xE3EB, size: 0x8, addend: 0x0, symName: __ZNSt3__19allocatorIP5TokenE7destroyB7v160006EPS2_, symObjAddr: 0x3F90, symBinAddr: 0x100005720, symSize: 0x10 }
  - { offsetInCU: 0xE41F, offset: 0xE41F, size: 0x8, addend: 0x0, symName: __ZNSt3__19allocatorIP5TokenE10deallocateB7v160006EPS2_m, symObjAddr: 0x3FA0, symBinAddr: 0x100005730, symSize: 0x70 }
  - { offsetInCU: 0xE461, offset: 0xE461, size: 0x8, addend: 0x0, symName: __ZNKSt3__114__split_bufferIP5TokenRNS_9allocatorIS2_EEE9__end_capB7v160006Ev, symObjAddr: 0x4080, symBinAddr: 0x100005810, symSize: 0x20 }
  - { offsetInCU: 0xE487, offset: 0xE487, size: 0x8, addend: 0x0, symName: __ZNKSt3__117__compressed_pairIPP5TokenRNS_9allocatorIS2_EEE5firstB7v160006Ev, symObjAddr: 0x40A0, symBinAddr: 0x100005830, symSize: 0x20 }
  - { offsetInCU: 0xE4B2, offset: 0xE4B2, size: 0x8, addend: 0x0, symName: __ZN5TokenC1Ev, symObjAddr: 0x40E0, symBinAddr: 0x100005870, symSize: 0x20 }
  - { offsetInCU: 0xE4DE, offset: 0xE4DE, size: 0x8, addend: 0x0, symName: __ZN5TokenC2Ev, symObjAddr: 0x4100, symBinAddr: 0x100005890, symSize: 0x20 }
  - { offsetInCU: 0xE509, offset: 0xE509, size: 0x8, addend: 0x0, symName: __Z9__isctypeim, symObjAddr: 0x4120, symBinAddr: 0x1000058B0, symSize: 0x60 }
  - { offsetInCU: 0xE544, offset: 0xE544, size: 0x8, addend: 0x0, symName: __ZNSt3__112basic_stringIcNS_11char_traitsIcEENS_9allocatorIcEEEC1B7v160006Emc, symObjAddr: 0x4180, symBinAddr: 0x100005910, symSize: 0x30 }
  - { offsetInCU: 0xE58C, offset: 0xE58C, size: 0x8, addend: 0x0, symName: __ZNSt3__112basic_stringIcNS_11char_traitsIcEENS_9allocatorIcEEEC2B7v160006Emc, symObjAddr: 0x41B0, symBinAddr: 0x100005940, symSize: 0x50 }
  - { offsetInCU: 0xE5D4, offset: 0xE5D4, size: 0x8, addend: 0x0, symName: __ZN5LexerD2Ev, symObjAddr: 0x4200, symBinAddr: 0x100005990, symSize: 0x20 }
  - { offsetInCU: 0xE600, offset: 0xE600, size: 0x8, addend: 0x0, symName: __ZNSt3__118basic_stringstreamIcNS_11char_traitsIcEENS_9allocatorIcEEED2Ev, symObjAddr: 0x4220, symBinAddr: 0x1000059B0, symSize: 0xA0 }
  - { offsetInCU: 0xE63A, offset: 0xE63A, size: 0x8, addend: 0x0, symName: __ZThn16_NSt3__118basic_stringstreamIcNS_11char_traitsIcEENS_9allocatorIcEEED1Ev, symObjAddr: 0x42C0, symBinAddr: 0x100005A50, symSize: 0x20 }
  - { offsetInCU: 0xE651, offset: 0xE651, size: 0x8, addend: 0x0, symName: __ZTv0_n24_NSt3__118basic_stringstreamIcNS_11char_traitsIcEENS_9allocatorIcEEED1Ev, symObjAddr: 0x42E0, symBinAddr: 0x100005A70, symSize: 0x20 }
  - { offsetInCU: 0xE66D, offset: 0xE66D, size: 0x8, addend: 0x0, symName: __ZNSt3__115basic_stringbufIcNS_11char_traitsIcEENS_9allocatorIcEEED1Ev, symObjAddr: 0x4300, symBinAddr: 0x100005A90, symSize: 0x20 }
  - { offsetInCU: 0xE69A, offset: 0xE69A, size: 0x8, addend: 0x0, symName: __ZNSt3__115basic_stringbufIcNS_11char_traitsIcEENS_9allocatorIcEEED2Ev, symObjAddr: 0x4320, symBinAddr: 0x100005AB0, symSize: 0x70 }
  - { offsetInCU: 0xE6C7, offset: 0xE6C7, size: 0x8, addend: 0x0, symName: __ZNSt3__114basic_ifstreamIcNS_11char_traitsIcEEED2Ev, symObjAddr: 0x4390, symBinAddr: 0x100005B20, symSize: 0xA0 }
  - { offsetInCU: 0xE701, offset: 0xE701, size: 0x8, addend: 0x0, symName: __ZTv0_n24_NSt3__114basic_ifstreamIcNS_11char_traitsIcEEED1Ev, symObjAddr: 0x4430, symBinAddr: 0x100005BC0, symSize: 0x20 }
  - { offsetInCU: 0xE718, offset: 0xE718, size: 0x8, addend: 0x0, symName: __ZNSt3__112basic_stringIcNS_11char_traitsIcEENS_9allocatorIcEEEC2B7v160006IDnEEPKc, symObjAddr: 0x4450, symBinAddr: 0x100005BE0, symSize: 0x60 }
  - { offsetInCU: 0xE756, offset: 0xE756, size: 0x8, addend: 0x0, symName: __ZNSt3__111char_traitsIcE6lengthEPKc, symObjAddr: 0x44B0, symBinAddr: 0x100005C40, symSize: 0x40 }
  - { offsetInCU: 0xE779, offset: 0xE779, size: 0x8, addend: 0x0, symName: __ZNSt3__19basic_iosIcNS_11char_traitsIcEEEC2B7v160006Ev, symObjAddr: 0x4510, symBinAddr: 0x100005CA0, symSize: 0x40 }
  - { offsetInCU: 0xE7A3, offset: 0xE7A3, size: 0x8, addend: 0x0, symName: __ZNSt3__114basic_iostreamIcNS_11char_traitsIcEEEC2B7v160006EPNS_15basic_streambufIcS2_EE, symObjAddr: 0x4550, symBinAddr: 0x100005CE0, symSize: 0xB0 }
  - { offsetInCU: 0xE7E9, offset: 0xE7E9, size: 0x8, addend: 0x0, symName: __ZNSt3__115basic_stringbufIcNS_11char_traitsIcEENS_9allocatorIcEEEC1B7v160006Ej, symObjAddr: 0x4600, symBinAddr: 0x100005D90, symSize: 0x30 }
  - { offsetInCU: 0xE821, offset: 0xE821, size: 0x8, addend: 0x0, symName: __ZNSt3__18ios_baseC2B7v160006Ev, symObjAddr: 0x4630, symBinAddr: 0x100005DC0, symSize: 0x20 }
  - { offsetInCU: 0xE84B, offset: 0xE84B, size: 0x8, addend: 0x0, symName: __ZNSt3__113basic_istreamIcNS_11char_traitsIcEEEC2B7v160006EPNS_15basic_streambufIcS2_EE, symObjAddr: 0x4650, symBinAddr: 0x100005DE0, symSize: 0x50 }
  - { offsetInCU: 0xE890, offset: 0xE890, size: 0x8, addend: 0x0, symName: __ZNSt3__113basic_ostreamIcNS_11char_traitsIcEEEC2B7v160006Ev, symObjAddr: 0x46A0, symBinAddr: 0x100005E30, symSize: 0x30 }
  - { offsetInCU: 0xE8C7, offset: 0xE8C7, size: 0x8, addend: 0x0, symName: __ZNSt3__19basic_iosIcNS_11char_traitsIcEEE4initB7v160006EPNS_15basic_streambufIcS2_EE, symObjAddr: 0x46D0, symBinAddr: 0x100005E60, symSize: 0x50 }
  - { offsetInCU: 0xE8FD, offset: 0xE8FD, size: 0x8, addend: 0x0, symName: __ZNSt3__111char_traitsIcE3eofEv, symObjAddr: 0x4720, symBinAddr: 0x100005EB0, symSize: 0x10 }
  - { offsetInCU: 0xE911, offset: 0xE911, size: 0x8, addend: 0x0, symName: __ZNSt3__115basic_stringbufIcNS_11char_traitsIcEENS_9allocatorIcEEEC2B7v160006Ej, symObjAddr: 0x4730, symBinAddr: 0x100005EC0, symSize: 0x90 }
  - { offsetInCU: 0xE967, offset: 0xE967, size: 0x8, addend: 0x0, symName: __ZNKSt3__113basic_ostreamIcNS_11char_traitsIcEEE6sentrycvbB7v160006Ev, symObjAddr: 0x49B0, symBinAddr: 0x100006140, symSize: 0x20 }
  - { offsetInCU: 0xE98D, offset: 0xE98D, size: 0x8, addend: 0x0, symName: __ZNSt3__119ostreambuf_iteratorIcNS_11char_traitsIcEEEC1B7v160006ERNS_13basic_ostreamIcS2_EE, symObjAddr: 0x4BF0, symBinAddr: 0x100006380, symSize: 0x30 }
  - { offsetInCU: 0xE9C5, offset: 0xE9C5, size: 0x8, addend: 0x0, symName: __ZNKSt3__18ios_base5flagsB7v160006Ev, symObjAddr: 0x4C20, symBinAddr: 0x1000063B0, symSize: 0x20 }
  - { offsetInCU: 0xE9EC, offset: 0xE9EC, size: 0x8, addend: 0x0, symName: __ZNKSt3__19basic_iosIcNS_11char_traitsIcEEE4fillB7v160006Ev, symObjAddr: 0x4C40, symBinAddr: 0x1000063D0, symSize: 0x70 }
  - { offsetInCU: 0xEA13, offset: 0xEA13, size: 0x8, addend: 0x0, symName: __ZNKSt3__119ostreambuf_iteratorIcNS_11char_traitsIcEEE6failedB7v160006Ev, symObjAddr: 0x4CB0, symBinAddr: 0x100006440, symSize: 0x20 }
  - { offsetInCU: 0xEA39, offset: 0xEA39, size: 0x8, addend: 0x0, symName: __ZNSt3__19basic_iosIcNS_11char_traitsIcEEE8setstateB7v160006Ej, symObjAddr: 0x4CD0, symBinAddr: 0x100006460, symSize: 0x30 }
  - { offsetInCU: 0xEA6E, offset: 0xEA6E, size: 0x8, addend: 0x0, symName: __ZNKSt3__18ios_base5widthB7v160006Ev, symObjAddr: 0x4D00, symBinAddr: 0x100006490, symSize: 0x20 }
  - { offsetInCU: 0xEA95, offset: 0xEA95, size: 0x8, addend: 0x0, symName: __ZNSt3__115basic_streambufIcNS_11char_traitsIcEEE5sputnB7v160006EPKcl, symObjAddr: 0x4D20, symBinAddr: 0x1000064B0, symSize: 0x30 }
  - { offsetInCU: 0xEAD7, offset: 0xEAD7, size: 0x8, addend: 0x0, symName: __ZNKSt3__112basic_stringIcNS_11char_traitsIcEENS_9allocatorIcEEE4dataB7v160006Ev, symObjAddr: 0x4D50, symBinAddr: 0x1000064E0, symSize: 0x30 }
  - { offsetInCU: 0xEAFD, offset: 0xEAFD, size: 0x8, addend: 0x0, symName: __ZNSt3__18ios_base5widthB7v160006El, symObjAddr: 0x4D80, symBinAddr: 0x100006510, symSize: 0x30 }
  - { offsetInCU: 0xEB42, offset: 0xEB42, size: 0x8, addend: 0x0, symName: __ZNKSt3__112basic_stringIcNS_11char_traitsIcEENS_9allocatorIcEEE13__get_pointerB7v160006Ev, symObjAddr: 0x4DC0, symBinAddr: 0x100006550, symSize: 0x50 }
  - { offsetInCU: 0xEB68, offset: 0xEB68, size: 0x8, addend: 0x0, symName: __ZNKSt3__112basic_stringIcNS_11char_traitsIcEENS_9allocatorIcEEE18__get_long_pointerB7v160006Ev, symObjAddr: 0x4E10, symBinAddr: 0x1000065A0, symSize: 0x20 }
  - { offsetInCU: 0xEB8E, offset: 0xEB8E, size: 0x8, addend: 0x0, symName: __ZNKSt3__112basic_stringIcNS_11char_traitsIcEENS_9allocatorIcEEE19__get_short_pointerB7v160006Ev, symObjAddr: 0x4E30, symBinAddr: 0x1000065C0, symSize: 0x30 }
  - { offsetInCU: 0xEBB4, offset: 0xEBB4, size: 0x8, addend: 0x0, symName: __ZNSt3__114pointer_traitsIPKcE10pointer_toB7v160006ERS1_, symObjAddr: 0x4E60, symBinAddr: 0x1000065F0, symSize: 0x10 }
  - { offsetInCU: 0xEBD7, offset: 0xEBD7, size: 0x8, addend: 0x0, symName: __ZNSt3__119ostreambuf_iteratorIcNS_11char_traitsIcEEEC2B7v160006ERNS_13basic_ostreamIcS2_EE, symObjAddr: 0x4E70, symBinAddr: 0x100006600, symSize: 0x60 }
  - { offsetInCU: 0xEC0F, offset: 0xEC0F, size: 0x8, addend: 0x0, symName: __ZNKSt3__19basic_iosIcNS_11char_traitsIcEEE5rdbufB7v160006Ev, symObjAddr: 0x4ED0, symBinAddr: 0x100006660, symSize: 0x20 }
  - { offsetInCU: 0xEC36, offset: 0xEC36, size: 0x8, addend: 0x0, symName: __ZNKSt3__18ios_base5rdbufB7v160006Ev, symObjAddr: 0x4EF0, symBinAddr: 0x100006680, symSize: 0x20 }
  - { offsetInCU: 0xEC5C, offset: 0xEC5C, size: 0x8, addend: 0x0, symName: __ZNSt3__111char_traitsIcE11eq_int_typeEii, symObjAddr: 0x4F10, symBinAddr: 0x1000066A0, symSize: 0x20 }
  - { offsetInCU: 0xEC8D, offset: 0xEC8D, size: 0x8, addend: 0x0, symName: __ZNKSt3__19basic_iosIcNS_11char_traitsIcEEE5widenB7v160006Ec, symObjAddr: 0x4F30, symBinAddr: 0x1000066C0, symSize: 0x90 }
  - { offsetInCU: 0xECFA, offset: 0xECFA, size: 0x8, addend: 0x0, symName: __ZNKSt3__15ctypeIcE5widenB7v160006Ec, symObjAddr: 0x4FF0, symBinAddr: 0x100006780, symSize: 0x30 }
  - { offsetInCU: 0xED2F, offset: 0xED2F, size: 0x8, addend: 0x0, symName: __ZNSt3__18ios_base8setstateB7v160006Ej, symObjAddr: 0x5020, symBinAddr: 0x1000067B0, symSize: 0x30 }
  - { offsetInCU: 0xED65, offset: 0xED65, size: 0x8, addend: 0x0, symName: __ZNSt3__16vectorIP5TokenNS_9allocatorIS2_EEED2B7v160006Ev, symObjAddr: 0x5050, symBinAddr: 0x1000067E0, symSize: 0x30 }
  - { offsetInCU: 0xED8F, offset: 0xED8F, size: 0x8, addend: 0x0, symName: __ZNSt3__16vectorIP5TokenNS_9allocatorIS2_EEE16__destroy_vectorC1ERS5_, symObjAddr: 0x5080, symBinAddr: 0x100006810, symSize: 0x30 }
  - { offsetInCU: 0xEDC8, offset: 0xEDC8, size: 0x8, addend: 0x0, symName: __ZNSt3__16vectorIP5TokenNS_9allocatorIS2_EEE16__destroy_vectorclB7v160006Ev, symObjAddr: 0x50B0, symBinAddr: 0x100006840, symSize: 0x90 }
  - { offsetInCU: 0xEDEE, offset: 0xEDEE, size: 0x8, addend: 0x0, symName: __ZNSt3__16vectorIP5TokenNS_9allocatorIS2_EEE16__destroy_vectorC2ERS5_, symObjAddr: 0x5140, symBinAddr: 0x1000068D0, symSize: 0x20 }
  - { offsetInCU: 0xEE27, offset: 0xEE27, size: 0x8, addend: 0x0, symName: __ZNSt3__16vectorIP5TokenNS_9allocatorIS2_EEE7__clearB7v160006Ev, symObjAddr: 0x5170, symBinAddr: 0x100006900, symSize: 0x20 }
  - { offsetInCU: 0xEE4D, offset: 0xEE4D, size: 0x8, addend: 0x0, symName: __ZNSt3__16vectorIP5TokenNS_9allocatorIS2_EEE22__base_destruct_at_endB7v160006EPS2_, symObjAddr: 0x5190, symBinAddr: 0x100006920, symSize: 0x90 }
  - { offsetInCU: 0xEE91, offset: 0xEE91, size: 0x8, addend: 0x0, symName: __ZNKSt3__113basic_filebufIcNS_11char_traitsIcEEE7is_openEv, symObjAddr: 0x5220, symBinAddr: 0x1000069B0, symSize: 0x20 }
  - { offsetInCU: 0xEEB8, offset: 0xEEB8, size: 0x8, addend: 0x0, symName: __ZNSt3__111char_traitsIcE12to_char_typeEi, symObjAddr: 0x5240, symBinAddr: 0x1000069D0, symSize: 0x10 }
  - { offsetInCU: 0xEEDB, offset: 0xEEDB, size: 0x8, addend: 0x0, symName: __ZNKSt3__19basic_iosIcNS_11char_traitsIcEEE4failB7v160006Ev, symObjAddr: 0x5250, symBinAddr: 0x1000069E0, symSize: 0x20 }
  - { offsetInCU: 0xEF01, offset: 0xEF01, size: 0x8, addend: 0x0, symName: __ZNKSt3__18ios_base4failB7v160006Ev, symObjAddr: 0x5270, symBinAddr: 0x100006A00, symSize: 0x20 }
  - { offsetInCU: 0xEF28, offset: 0xEF28, size: 0x8, addend: 0x0, symName: __ZNSt3__16vectorIP5TokenNS_9allocatorIS2_EEE11__make_iterB7v160006EPS2_, symObjAddr: 0x5290, symBinAddr: 0x100006A20, symSize: 0x30 }
  - { offsetInCU: 0xEF5D, offset: 0xEF5D, size: 0x8, addend: 0x0, symName: __ZNSt3__111__wrap_iterIPP5TokenEC1B7v160006EPKvS3_, symObjAddr: 0x52C0, symBinAddr: 0x100006A50, symSize: 0x30 }
  - { offsetInCU: 0xEFA3, offset: 0xEFA3, size: 0x8, addend: 0x0, symName: __ZNSt3__111__wrap_iterIPP5TokenEC2B7v160006EPKvS3_, symObjAddr: 0x52F0, symBinAddr: 0x100006A80, symSize: 0x20 }
  - { offsetInCU: 0xEFE9, offset: 0xEFE9, size: 0x8, addend: 0x0, symName: __ZNKSt3__111__wrap_iterIPP5TokenE4baseB7v160006Ev, symObjAddr: 0x5350, symBinAddr: 0x100006AE0, symSize: 0x20 }
  - { offsetInCU: 0xF00F, offset: 0xF00F, size: 0x8, addend: 0x0, symName: __ZNSt3__116allocator_traitsINS_9allocatorIcEEE37select_on_container_copy_constructionB7v160006IS2_vvEES2_RKS2_, symObjAddr: 0x5370, symBinAddr: 0x100006B00, symSize: 0x10 }
  - { offsetInCU: 0xF03E, offset: 0xF03E, size: 0x8, addend: 0x0, symName: __ZNKSt3__112basic_stringIcNS_11char_traitsIcEENS_9allocatorIcEEE13get_allocatorB7v160006Ev, symObjAddr: 0x5380, symBinAddr: 0x100006B10, symSize: 0x20 }
  - { offsetInCU: 0xF064, offset: 0xF064, size: 0x8, addend: 0x0, symName: __ZNSt3__112basic_stringIcNS_11char_traitsIcEENS_9allocatorIcEEEC1B7v160006ENS_24__uninitialized_size_tagEmRKS4_, symObjAddr: 0x53A0, symBinAddr: 0x100006B30, symSize: 0x30 }
  - { offsetInCU: 0xF0B7, offset: 0xF0B7, size: 0x8, addend: 0x0, symName: __ZNSt3__111char_traitsIcE4copyEPcPKcm, symObjAddr: 0x53E0, symBinAddr: 0x100006B70, symSize: 0x90 }
  - { offsetInCU: 0xF0F6, offset: 0xF0F6, size: 0x8, addend: 0x0, symName: __ZNSt3__111char_traitsIcE6assignEPcmc, symObjAddr: 0x5470, symBinAddr: 0x100006C00, symSize: 0x50 }
  - { offsetInCU: 0xF135, offset: 0xF135, size: 0x8, addend: 0x0, symName: __ZNKSt3__112basic_stringIcNS_11char_traitsIcEENS_9allocatorIcEEE7__allocB7v160006Ev, symObjAddr: 0x54C0, symBinAddr: 0x100006C50, symSize: 0x20 }
  - { offsetInCU: 0xF15B, offset: 0xF15B, size: 0x8, addend: 0x0, symName: __ZNKSt3__117__compressed_pairINS_12basic_stringIcNS_11char_traitsIcEENS_9allocatorIcEEE5__repES5_E6secondB7v160006Ev, symObjAddr: 0x54E0, symBinAddr: 0x100006C70, symSize: 0x20 }
  - { offsetInCU: 0xF181, offset: 0xF181, size: 0x8, addend: 0x0, symName: __ZNKSt3__122__compressed_pair_elemINS_9allocatorIcEELi1ELb1EE5__getB7v160006Ev, symObjAddr: 0x5500, symBinAddr: 0x100006C90, symSize: 0x10 }
  - { offsetInCU: 0xF1A7, offset: 0xF1A7, size: 0x8, addend: 0x0, symName: __ZNSt3__112basic_stringIcNS_11char_traitsIcEENS_9allocatorIcEEEC2B7v160006ENS_24__uninitialized_size_tagEmRKS4_, symObjAddr: 0x5510, symBinAddr: 0x100006CA0, symSize: 0x120 }
  - { offsetInCU: 0xF229, offset: 0xF229, size: 0x8, addend: 0x0, symName: __ZNSt3__117__compressed_pairINS_12basic_stringIcNS_11char_traitsIcEENS_9allocatorIcEEE5__repES5_EC1B7v160006INS_18__default_init_tagERKS5_EEOT_OT0_, symObjAddr: 0x5630, symBinAddr: 0x100006DC0, symSize: 0x30 }
  - { offsetInCU: 0xF281, offset: 0xF281, size: 0x8, addend: 0x0, symName: __ZNKSt3__112basic_stringIcNS_11char_traitsIcEENS_9allocatorIcEEE8max_sizeB7v160006Ev, symObjAddr: 0x5660, symBinAddr: 0x100006DF0, symSize: 0xA0 }
  - { offsetInCU: 0xF2D4, offset: 0xF2D4, size: 0x8, addend: 0x0, symName: __ZNKSt3__112basic_stringIcNS_11char_traitsIcEENS_9allocatorIcEEE20__throw_length_errorB7v160006Ev, symObjAddr: 0x5700, symBinAddr: 0x100006E90, symSize: 0x20 }
  - { offsetInCU: 0xF2FA, offset: 0xF2FA, size: 0x8, addend: 0x0, symName: __ZNSt3__112basic_stringIcNS_11char_traitsIcEENS_9allocatorIcEEE13__fits_in_ssoB7v160006Em, symObjAddr: 0x5720, symBinAddr: 0x100006EB0, symSize: 0x40 }
  - { offsetInCU: 0xF31E, offset: 0xF31E, size: 0x8, addend: 0x0, symName: __ZNSt3__112basic_stringIcNS_11char_traitsIcEENS_9allocatorIcEEE16__set_short_sizeB7v160006Em, symObjAddr: 0x5760, symBinAddr: 0x100006EF0, symSize: 0x50 }
  - { offsetInCU: 0xF353, offset: 0xF353, size: 0x8, addend: 0x0, symName: __ZNSt3__117__compressed_pairINS_12basic_stringIcNS_11char_traitsIcEENS_9allocatorIcEEE5__repES5_EC2B7v160006INS_18__default_init_tagERKS5_EEOT_OT0_, symObjAddr: 0x57B0, symBinAddr: 0x100006F40, symSize: 0x40 }
  - { offsetInCU: 0xF3AB, offset: 0xF3AB, size: 0x8, addend: 0x0, symName: __ZNSt3__122__compressed_pair_elemINS_9allocatorIcEELi1ELb1EEC2B7v160006IRKS2_vEEOT_, symObjAddr: 0x57F0, symBinAddr: 0x100006F80, symSize: 0x10 }
  - { offsetInCU: 0xF3ED, offset: 0xF3ED, size: 0x8, addend: 0x0, symName: __ZNSt3__114numeric_limitsImE3maxB7v160006Ev, symObjAddr: 0x5800, symBinAddr: 0x100006F90, symSize: 0x10 }
  - { offsetInCU: 0xF401, offset: 0xF401, size: 0x8, addend: 0x0, symName: __ZNSt3__123__libcpp_numeric_limitsImLb1EE3maxB7v160006Ev, symObjAddr: 0x5810, symBinAddr: 0x100006FA0, symSize: 0x10 }
  - { offsetInCU: 0xF44C, offset: 0xF44C, size: 0x8, addend: 0x0, symName: __ZNKSt3__114__copy_trivialclB7v160006IKccLi0EEENS_4pairIPT_PT0_EES5_S5_S7_, symObjAddr: 0x5A40, symBinAddr: 0x1000071D0, symSize: 0x40 }
  - { offsetInCU: 0xF4CD, offset: 0xF4CD, size: 0x8, addend: 0x0, symName: __ZNSt3__14pairIPKcS2_EC1B7v160006ERKS2_S5_, symObjAddr: 0x5BA0, symBinAddr: 0x100007330, symSize: 0x30 }
  - { offsetInCU: 0xF513, offset: 0xF513, size: 0x8, addend: 0x0, symName: __ZNSt3__14pairIPKcS2_EC2B7v160006ERKS2_S5_, symObjAddr: 0x5BD0, symBinAddr: 0x100007360, symSize: 0x30 }
  - { offsetInCU: 0xF559, offset: 0xF559, size: 0x8, addend: 0x0, symName: __ZNSt3__118__unwrap_iter_implIPKcLb1EE8__unwrapB7v160006ES2_, symObjAddr: 0x5C00, symBinAddr: 0x100007390, symSize: 0x20 }
  - { offsetInCU: 0xF57C, offset: 0xF57C, size: 0x8, addend: 0x0, symName: __ZNSt3__14pairIPKcPcEC1B7v160006ERKS2_RKS3_, symObjAddr: 0x5CC0, symBinAddr: 0x100007450, symSize: 0x30 }
  - { offsetInCU: 0xF5C2, offset: 0xF5C2, size: 0x8, addend: 0x0, symName: __ZNSt3__14pairIPKcPcEC2B7v160006ERKS2_RKS3_, symObjAddr: 0x5CF0, symBinAddr: 0x100007480, symSize: 0x30 }
  - { offsetInCU: 0xF608, offset: 0xF608, size: 0x8, addend: 0x0, symName: __ZNSt3__118__unwrap_iter_implIPcLb1EE8__unwrapB7v160006ES1_, symObjAddr: 0x5D20, symBinAddr: 0x1000074B0, symSize: 0x20 }
  - { offsetInCU: 0xF62B, offset: 0xF62B, size: 0x8, addend: 0x0, symName: __ZNSt3__118__unwrap_iter_implIPKcLb1EE8__rewrapB7v160006ES2_S2_, symObjAddr: 0x5D90, symBinAddr: 0x100007520, symSize: 0x40 }
  - { offsetInCU: 0xF65C, offset: 0xF65C, size: 0x8, addend: 0x0, symName: __ZNSt3__118__unwrap_iter_implIPcLb1EE8__rewrapB7v160006ES1_S1_, symObjAddr: 0x5DD0, symBinAddr: 0x100007560, symSize: 0x40 }
...
